target datalayout = "e-m:e-p270:32:32-p271:32:32-p272:64:64-i64:64-i128:128-f80:128-n8:16:32:64-S128"
target triple = "x86_64-unknown-linux-gnu"

%class.mpq = type { %class.mpz, %class.mpz }
%class.mpz = type { i32, i8, ptr }
%class.fpa_rewriter = type <{ %class.fpa_util, ptr, i8, [7 x i8] }>
%class.fpa_util = type { ptr, ptr, i32, %class.arith_util, %class.bv_util }
%class.arith_util = type { ptr, ptr }
%class.bv_util = type { %class.bv_recognizers, ptr, ptr }
%class.bv_recognizers = type { i32 }
%struct.fpa_rewriter_params = type { ptr, %class.params_ref }
%class.params_ref = type { ptr }
%class.mpf_manager = type { %class.mpq_manager, ptr, %"class.mpf_manager::powers2" }
%class.mpq_manager = type { %class.mpz_manager, %class.mpz, %class.mpz, %class.mpz, %class.mpz, %class.mpq, %class.mpq }
%class.mpz_manager = type { %class.small_object_allocator, %"class.std::recursive_mutex", %class.mpn_manager, i32, %class.mpz, %class.mpz }
%class.small_object_allocator = type { [32 x ptr], [32 x ptr], i64 }
%"class.std::recursive_mutex" = type { %"class.std::__recursive_mutex_base" }
%"class.std::__recursive_mutex_base" = type { %union.pthread_mutex_t }
%union.pthread_mutex_t = type { %struct.__pthread_mutex_s }
%struct.__pthread_mutex_s = type { i32, i32, i32, i32, i32, i16, i16, %struct.__pthread_internal_list }
%struct.__pthread_internal_list = type { ptr, ptr }
%class.mpn_manager = type { i8 }
%"class.mpf_manager::powers2" = type { ptr, %class.u_map.26, %class.u_map.26, %class.u_map.26, %class.u_map.26 }
%class.u_map.26 = type { %class.map.27 }
%class.map.27 = type { %class.table2map.28 }
%class.table2map.28 = type { %class.core_hashtable.29 }
%class.core_hashtable.29 = type <{ ptr, i32, i32, i32, [4 x i8] }>
%class.id_gen = type { i32, %class.svector.17 }
%class.svector.17 = type { %class.vector.18 }
%class.vector.18 = type { ptr }
%class.fpa_decl_plugin = type { %class.decl_plugin.base, %class.mpf_manager, %class.id_gen, %class._scoped_numeral_vector, %class.chashtable.49, ptr, ptr, i32, i32, ptr }
%class.decl_plugin.base = type <{ ptr, ptr, i32 }>
%class._scoped_numeral_vector = type { %class.svector.47, ptr }
%class.svector.47 = type { %class.vector.48 }
%class.vector.48 = type { ptr }
%class.chashtable.49 = type { %"struct.fpa_decl_plugin::mpf_hash_proc", %"struct.fpa_decl_plugin::mpf_eq_proc", ptr, i32, i32, i32, i32, i32, i32, i32, ptr, ptr, ptr }
%"struct.fpa_decl_plugin::mpf_hash_proc" = type { ptr }
%"struct.fpa_decl_plugin::mpf_eq_proc" = type { ptr }

@.str.2 = private unnamed_addr constant [9 x i8] c"rewriter\00", align 1
@.str.3 = private unnamed_addr constant [18 x i8] c"hi_fp_unspecified\00", align 1

; Function Attrs: mustprogress nounwind uwtable
define linkonce_odr hidden void @_ZN19fpa_rewriter_paramsD2Ev(ptr noundef nonnull align 8 dereferenceable(16) %this) unnamed_addr #5 comdat align 2 {
entry:
  %this.addr = alloca ptr, align 8
  store ptr %this, ptr %this.addr, align 8
  %this1 = load ptr, ptr %this.addr, align 8
  %g = getelementptr inbounds %struct.fpa_rewriter_params, ptr %this1, i32 0, i32 1
  call void @_ZN10params_refD1Ev(ptr noundef nonnull align 8 dereferenceable(8) %g) #3
  ret void
}

; Function Attrs: mustprogress uwtable
define linkonce_odr hidden noundef zeroext i1 @_ZNK19fpa_rewriter_params17hi_fp_unspecifiedEv(ptr noundef nonnull align 8 dereferenceable(16) %this) #4 comdat align 2 {
entry:
  %this.addr = alloca ptr, align 8
  store ptr %this, ptr %this.addr, align 8
  %this1 = load ptr, ptr %this.addr, align 8
  %p = getelementptr inbounds %struct.fpa_rewriter_params, ptr %this1, i32 0, i32 0
  %0 = load ptr, ptr %p, align 8
  %g = getelementptr inbounds %struct.fpa_rewriter_params, ptr %this1, i32 0, i32 1
  %call = call noundef zeroext i1 @_ZNK10params_ref8get_boolEPKcRKS_b(ptr noundef nonnull align 8 dereferenceable(8) %0, ptr noundef @.str.3, ptr noundef nonnull align 8 dereferenceable(8) %g, i1 noundef zeroext false)
  ret i1 %call
}

; Function Attrs: mustprogress uwtable
define linkonce_odr hidden void @_ZN19fpa_rewriter_paramsC2ERK10params_ref(ptr noundef nonnull align 8 dereferenceable(16) %this, ptr noundef nonnull align 8 dereferenceable(8) %_p) unnamed_addr #4 comdat align 2 {
entry:
  %this.addr = alloca ptr, align 8
  %_p.addr = alloca ptr, align 8
  store ptr %this, ptr %this.addr, align 8
  store ptr %_p, ptr %_p.addr, align 8
  %this1 = load ptr, ptr %this.addr, align 8
  %p = getelementptr inbounds %struct.fpa_rewriter_params, ptr %this1, i32 0, i32 0
  %0 = load ptr, ptr %_p.addr, align 8
  store ptr %0, ptr %p, align 8
  %g = getelementptr inbounds %struct.fpa_rewriter_params, ptr %this1, i32 0, i32 1
  call void @_ZN7gparams10get_moduleEPKc(ptr sret(%class.params_ref) align 8 %g, ptr noundef @.str.2)
  ret void
}

; Function Attrs: mustprogress nounwind uwtable
define linkonce_odr hidden noundef nonnull align 8 dereferenceable(840) ptr @_ZN15fpa_decl_plugin2fmEv(ptr noundef nonnull align 8 dereferenceable(1008) %this) #5 comdat align 2 {
entry:
  %this.addr = alloca ptr, align 8
  store ptr %this, ptr %this.addr, align 8
  %this1 = load ptr, ptr %this.addr, align 8
  %m_fm = getelementptr inbounds %class.fpa_decl_plugin, ptr %this1, i32 0, i32 1
  ret ptr %m_fm
}

; Function Attrs: mustprogress uwtable
define hidden void @_ZN12fpa_rewriter11updt_paramsERK10params_ref(ptr noundef nonnull align 8 dereferenceable(73) %this, ptr noundef nonnull align 8 dereferenceable(8) %_p) #4 align 2 personality ptr @__gxx_personality_v0 {
entry:
  %this.addr = alloca ptr, align 8
  %_p.addr = alloca ptr, align 8
  %p = alloca %struct.fpa_rewriter_params, align 8
  %exn.slot = alloca ptr, align 8
  %ehselector.slot = alloca i32, align 4
  store ptr %this, ptr %this.addr, align 8
  store ptr %_p, ptr %_p.addr, align 8
  %this1 = load ptr, ptr %this.addr, align 8
  %0 = load ptr, ptr %_p.addr, align 8
  call void @_ZN19fpa_rewriter_paramsC2ERK10params_ref(ptr noundef nonnull align 8 dereferenceable(16) %p, ptr noundef nonnull align 8 dereferenceable(8) %0)
  %call = invoke noundef zeroext i1 @_ZNK19fpa_rewriter_params17hi_fp_unspecifiedEv(ptr noundef nonnull align 8 dereferenceable(16) %p)
          to label %invoke.cont unwind label %lpad

invoke.cont:                                      ; preds = %entry
  %m_hi_fp_unspecified = getelementptr inbounds %class.fpa_rewriter, ptr %this1, i32 0, i32 2
  %frombool = zext i1 %call to i8
  store i8 %frombool, ptr %m_hi_fp_unspecified, align 8
  call void @_ZN19fpa_rewriter_paramsD2Ev(ptr noundef nonnull align 8 dereferenceable(16) %p) #3
  ret void

lpad:                                             ; preds = %entry
  %1 = landingpad { ptr, i32 }
          cleanup
  %2 = extractvalue { ptr, i32 } %1, 0
  store ptr %2, ptr %exn.slot, align 8
  %3 = extractvalue { ptr, i32 } %1, 1
  store i32 %3, ptr %ehselector.slot, align 4
  call void @_ZN19fpa_rewriter_paramsD2Ev(ptr noundef nonnull align 8 dereferenceable(16) %p) #3
  br label %eh.resume

eh.resume:                                        ; preds = %lpad
  %exn = load ptr, ptr %exn.slot, align 8
  %sel = load i32, ptr %ehselector.slot, align 4
  %lpad.val = insertvalue { ptr, i32 } poison, ptr %exn, 0
  %lpad.val2 = insertvalue { ptr, i32 } %lpad.val, i32 %sel, 1
  resume { ptr, i32 } %lpad.val2
}

; Function Attrs: mustprogress uwtable
define linkonce_odr hidden noundef nonnull align 8 dereferenceable(840) ptr @_ZNK8fpa_util2fmEv(ptr noundef nonnull align 8 dereferenceable(64) %this) #4 comdat align 2 {
entry:
  %this.addr = alloca ptr, align 8
  store ptr %this, ptr %this.addr, align 8
  %this1 = load ptr, ptr %this.addr, align 8
  %m_plugin = getelementptr inbounds %class.fpa_util, ptr %this1, i32 0, i32 1
  %0 = load ptr, ptr %m_plugin, align 8
  %call = call noundef nonnull align 8 dereferenceable(840) ptr @_ZN15fpa_decl_plugin2fmEv(ptr noundef nonnull align 8 dereferenceable(1008) %0)
  ret ptr %call
}

; Function Attrs: mustprogress uwtable
define hidden void @_ZN12fpa_rewriterC2ER11ast_managerRK10params_ref(ptr noundef nonnull align 8 dereferenceable(73) %this, ptr noundef nonnull align 8 dereferenceable(976) %m, ptr noundef nonnull align 8 dereferenceable(8) %p) unnamed_addr #4 align 2 personality ptr @__gxx_personality_v0 {
entry:
  %this.addr = alloca ptr, align 8
  %m.addr = alloca ptr, align 8
  %p.addr = alloca ptr, align 8
  %exn.slot = alloca ptr, align 8
  %ehselector.slot = alloca i32, align 4
  store ptr %this, ptr %this.addr, align 8
  store ptr %m, ptr %m.addr, align 8
  store ptr %p, ptr %p.addr, align 8
  %this1 = load ptr, ptr %this.addr, align 8
  %m_util = getelementptr inbounds %class.fpa_rewriter, ptr %this1, i32 0, i32 0
  %0 = load ptr, ptr %m.addr, align 8
  call void @_ZN8fpa_utilC1ER11ast_manager(ptr noundef nonnull align 8 dereferenceable(64) %m_util, ptr noundef nonnull align 8 dereferenceable(976) %0)
  %m_fm = getelementptr inbounds %class.fpa_rewriter, ptr %this1, i32 0, i32 1
  %m_util2 = getelementptr inbounds %class.fpa_rewriter, ptr %this1, i32 0, i32 0
  %call = invoke noundef nonnull align 8 dereferenceable(840) ptr @_ZNK8fpa_util2fmEv(ptr noundef nonnull align 8 dereferenceable(64) %m_util2)
          to label %invoke.cont unwind label %lpad

invoke.cont:                                      ; preds = %entry
  store ptr %call, ptr %m_fm, align 8
  %m_hi_fp_unspecified = getelementptr inbounds %class.fpa_rewriter, ptr %this1, i32 0, i32 2
  store i8 0, ptr %m_hi_fp_unspecified, align 8
  %1 = load ptr, ptr %p.addr, align 8
  invoke void @_ZN12fpa_rewriter11updt_paramsERK10params_ref(ptr noundef nonnull align 8 dereferenceable(73) %this1, ptr noundef nonnull align 8 dereferenceable(8) %1)
          to label %invoke.cont3 unwind label %lpad

invoke.cont3:                                     ; preds = %invoke.cont
  ret void

lpad:                                             ; preds = %invoke.cont, %entry
  %2 = landingpad { ptr, i32 }
          cleanup
  %3 = extractvalue { ptr, i32 } %2, 0
  store ptr %3, ptr %exn.slot, align 8
  %4 = extractvalue { ptr, i32 } %2, 1
  store i32 %4, ptr %ehselector.slot, align 4
  call void @_ZN8fpa_utilD1Ev(ptr noundef nonnull align 8 dereferenceable(64) %m_util) #3
  br label %eh.resume

eh.resume:                                        ; preds = %lpad
  %exn = load ptr, ptr %exn.slot, align 8
  %sel = load i32, ptr %ehselector.slot, align 4
  %lpad.val = insertvalue { ptr, i32 } poison, ptr %exn, 0
  %lpad.val4 = insertvalue { ptr, i32 } %lpad.val, i32 %sel, 1
  resume { ptr, i32 } %lpad.val4
}