; Function Attrs: mustprogress uwtable
define hidden void @_ZN12fpa_rewriterC2ER11ast_managerRK10params_ref(ptr noundef nonnull align 8 dereferenceable(73) %this, ptr noundef nonnull align 8 dereferenceable(976) %m, ptr noundef nonnull align 8 dereferenceable(8) %p) unnamed_addr #3 align 2 personality ptr @__gxx_personality_v0 {
invoke.cont:
  %p.i = alloca %struct.fpa_rewriter_params, align 8
  tail call void @_ZN8fpa_utilC1ER11ast_manager(ptr noundef nonnull align 8 dereferenceable(64) %this, ptr noundef nonnull align 8 dereferenceable(976) %m)
  %m_plugin.i = getelementptr inbounds i8, ptr %this, i64 8
  %0 = load ptr, ptr %m_plugin.i, align 8
  %m_fm.i.i = getelementptr inbounds i8, ptr %0, i64 24
  %m_fm = getelementptr inbounds i8, ptr %this, i64 64
  store ptr %m_fm.i.i, ptr %m_fm, align 8
  %m_hi_fp_unspecified = getelementptr inbounds i8, ptr %this, i64 72
  store i8 0, ptr %m_hi_fp_unspecified, align 8
  call void @llvm.lifetime.start.p0(i64 16, ptr nonnull %p.i)
  store ptr %p, ptr %p.i, align 8
  %g.i.i = getelementptr inbounds i8, ptr %p.i, i64 8
  invoke void @_ZN7gparams10get_moduleEPKc(ptr nonnull sret(%class.params_ref) align 8 %g.i.i, ptr noundef nonnull @.str.2)
          to label %.noexc unwind label %lpad

.noexc:                                           ; preds = %invoke.cont
  %1 = load ptr, ptr %p.i, align 8
  %call.i2.i = invoke noundef zeroext i1 @_ZNK10params_ref8get_boolEPKcRKS_b(ptr noundef nonnull align 8 dereferenceable(8) %1, ptr noundef nonnull @.str.3, ptr noundef nonnull align 8 dereferenceable(8) %g.i.i, i1 noundef zeroext false)
          to label %invoke.cont3 unwind label %lpad.i

lpad.i:                                           ; preds = %.noexc
  %2 = landingpad { ptr, i32 }
          cleanup
  call void @_ZN10params_refD1Ev(ptr noundef nonnull align 8 dereferenceable(8) %g.i.i) #13
  br label %lpad.body

invoke.cont3:                                     ; preds = %.noexc
  %frombool.i = zext i1 %call.i2.i to i8
  store i8 %frombool.i, ptr %m_hi_fp_unspecified, align 8
  call void @_ZN10params_refD1Ev(ptr noundef nonnull align 8 dereferenceable(8) %g.i.i) #13
  call void @llvm.lifetime.end.p0(i64 16, ptr nonnull %p.i)
  ret void

lpad:                                             ; preds = %invoke.cont
  %3 = landingpad { ptr, i32 }
          cleanup
  br label %lpad.body

lpad.body:                                        ; preds = %lpad.i, %lpad
  %eh.lpad-body = phi { ptr, i32 } [ %3, %lpad ], [ %2, %lpad.i ]
  call void @_ZN8fpa_utilD1Ev(ptr noundef nonnull align 8 dereferenceable(64) %this) #13
  resume { ptr, i32 } %eh.lpad-body
}